target datalayout = "e-m:e-p270:32:32-p271:32:32-p272:64:64-i64:64-i128:128-f80:128-n8:16:32:64-S128"
target triple = "x86_64-unknown-linux-gnu"

%struct.BlockDriverState = type { i32, i8, i8, i8, i8, i8, ptr, ptr, ptr, %struct.anon, i8, [4096 x i8], [4096 x i8], [4096 x i8], [16 x i8], ptr, [4096 x i8], %struct.BlockLimits, i32, i32, i32, i32, [32 x i8], %union.anon, %union.anon.0, %union.anon.1, i32, [16 x %struct.anon.2], ptr, %struct.anon.3, ptr, ptr, %struct.anon.4, ptr, ptr, i32, ptr, i64, i64, %struct.QemuMutex, %struct.anon.5, %struct.Stat64, i32, i32, i32, i32, i32, i32, %struct.QemuMutex, %struct.anon.6, %struct.CoQueue, i8, i32, i8, %struct.CoMutex, ptr, ptr }
%struct.anon = type { ptr }
%struct.BlockLimits = type { i32, i64, i32, i64, i32, i32, i32, i64, i32, i64, i64, i32, i8, i32, i32, i32, i32, i32, i32, i32 }
%union.anon = type { %struct.QTailQLink }
%struct.QTailQLink = type { ptr, ptr }
%union.anon.0 = type { %struct.QTailQLink }
%union.anon.1 = type { %struct.QTailQLink }
%struct.anon.2 = type { ptr }
%struct.anon.3 = type { ptr }
%struct.anon.4 = type { ptr }
%struct.anon.5 = type { ptr }
%struct.Stat64 = type { i64 }
%struct.QemuMutex = type { %union.pthread_mutex_t, i8 }
%union.pthread_mutex_t = type { %struct.__pthread_mutex_s }
%struct.__pthread_mutex_s = type { i32, i32, i32, i32, i32, i16, i16, %struct.__pthread_internal_list }
%struct.__pthread_internal_list = type { ptr, ptr }
%struct.anon.6 = type { ptr }
%struct.CoQueue = type { %struct.anon.7 }
%struct.anon.7 = type { ptr, ptr }
%struct.CoMutex = type { i32, ptr, %struct.anon.8, %struct.anon.8, i32, i32, ptr }
%struct.anon.8 = type { ptr }
%struct.BDRVQcow2State = type { i32, i32, i32, i32, i32, i32, i32, i32, i32, i32, i32, i32, i32, i32, i64, i64, ptr, ptr, ptr, ptr, i32, %struct.anon.9, ptr, i64, i32, i32, i64, i64, %struct.CoMutex, %struct.Qcow2CryptoHeaderExtension, ptr, ptr, i8, i32, i64, i32, i32, ptr, i32, i64, i64, i32, i32, i8, i32, i32, i64, ptr, ptr, [5 x i8], i8, i32, i8, i64, i64, i64, i64, ptr, %struct.anon.10, %union.anon.11, i8, ptr, ptr, ptr, %struct.CoQueue, i32, ptr, i8, i8, i32 }
%struct.anon.9 = type { ptr }
%struct.Qcow2CryptoHeaderExtension = type { i64, i64 }
%struct.anon.10 = type { ptr }
%union.anon.11 = type { %struct.QTailQLink }

@.str.1 = private unnamed_addr constant [31 x i8] c"../qemu/block/qcow2-refcount.c\00", align 1
@.str.11 = private unnamed_addr constant [17 x i8] c"nb_clusters >= 0\00", align 1
@__PRETTY_FUNCTION__.qcow2_alloc_clusters_at = private unnamed_addr constant [71 x i8] c"int64_t qcow2_alloc_clusters_at(BlockDriverState *, uint64_t, int64_t)\00", align 1

; Function Attrs: nounwind sspstrong uwtable
define dso_local i64 @qcow2_alloc_clusters_at(ptr noundef %bs, i64 noundef %offset, i64 noundef %nb_clusters) #0 {
entry:
  %retval = alloca i64, align 8
  %bs.addr = alloca ptr, align 8
  %offset.addr = alloca i64, align 8
  %nb_clusters.addr = alloca i64, align 8
  %s = alloca ptr, align 8
  %cluster_index = alloca i64, align 8
  %refcount = alloca i64, align 8
  %i = alloca i64, align 8
  %ret = alloca i32, align 4
  store ptr %bs, ptr %bs.addr, align 8
  store i64 %offset, ptr %offset.addr, align 8
  store i64 %nb_clusters, ptr %nb_clusters.addr, align 8
  %0 = load ptr, ptr %bs.addr, align 8
  %opaque = getelementptr inbounds %struct.BlockDriverState, ptr %0, i32 0, i32 7
  %1 = load ptr, ptr %opaque, align 8
  store ptr %1, ptr %s, align 8
  %2 = load i64, ptr %nb_clusters.addr, align 8
  %cmp = icmp sge i64 %2, 0
  br i1 %cmp, label %if.then, label %if.else

if.then:                                          ; preds = %entry
  br label %if.end

if.else:                                          ; preds = %entry
  call void @__assert_fail(ptr noundef @.str.11, ptr noundef @.str.1, i32 noundef 1039, ptr noundef @__PRETTY_FUNCTION__.qcow2_alloc_clusters_at) #10
  unreachable

if.end:                                           ; preds = %if.then
  %3 = load i64, ptr %nb_clusters.addr, align 8
  %cmp1 = icmp eq i64 %3, 0
  br i1 %cmp1, label %if.then2, label %if.end3

if.then2:                                         ; preds = %if.end
  store i64 0, ptr %retval, align 8
  br label %return

if.end3:                                          ; preds = %if.end
  br label %do.body

do.body:                                          ; preds = %do.cond, %if.end3
  %4 = load i64, ptr %offset.addr, align 8
  %5 = load ptr, ptr %s, align 8
  %cluster_bits = getelementptr inbounds %struct.BDRVQcow2State, ptr %5, i32 0, i32 0
  %6 = load i32, ptr %cluster_bits, align 8
  %sh_prom = zext i32 %6 to i64
  %shr = lshr i64 %4, %sh_prom
  store i64 %shr, ptr %cluster_index, align 8
  store i64 0, ptr %i, align 8
  br label %for.cond

for.cond:                                         ; preds = %for.inc, %do.body
  %7 = load i64, ptr %i, align 8
  %8 = load i64, ptr %nb_clusters.addr, align 8
  %cmp4 = icmp ult i64 %7, %8
  br i1 %cmp4, label %for.body, label %for.end

for.body:                                         ; preds = %for.cond
  %9 = load ptr, ptr %bs.addr, align 8
  %10 = load i64, ptr %cluster_index, align 8
  %inc = add i64 %10, 1
  store i64 %inc, ptr %cluster_index, align 8
  %call = call i32 @qcow2_get_refcount(ptr noundef %9, i64 noundef %10, ptr noundef %refcount)
  store i32 %call, ptr %ret, align 4
  %11 = load i32, ptr %ret, align 4
  %cmp5 = icmp slt i32 %11, 0
  br i1 %cmp5, label %if.then6, label %if.else7

if.then6:                                         ; preds = %for.body
  %12 = load i32, ptr %ret, align 4
  %conv = sext i32 %12 to i64
  store i64 %conv, ptr %retval, align 8
  br label %return

if.else7:                                         ; preds = %for.body
  %13 = load i64, ptr %refcount, align 8
  %cmp8 = icmp ne i64 %13, 0
  br i1 %cmp8, label %if.then10, label %if.end11

if.then10:                                        ; preds = %if.else7
  br label %for.end

if.end11:                                         ; preds = %if.else7
  br label %if.end12

if.end12:                                         ; preds = %if.end11
  br label %for.inc

for.inc:                                          ; preds = %if.end12
  %14 = load i64, ptr %i, align 8
  %inc13 = add i64 %14, 1
  store i64 %inc13, ptr %i, align 8
  br label %for.cond, !llvm.loop !17

for.end:                                          ; preds = %if.then10, %for.cond
  %15 = load ptr, ptr %bs.addr, align 8
  %16 = load i64, ptr %offset.addr, align 8
  %17 = load i64, ptr %i, align 8
  %18 = load ptr, ptr %s, align 8
  %cluster_bits14 = getelementptr inbounds %struct.BDRVQcow2State, ptr %18, i32 0, i32 0
  %19 = load i32, ptr %cluster_bits14, align 8
  %sh_prom15 = zext i32 %19 to i64
  %shl = shl i64 %17, %sh_prom15
  %call16 = call i32 @update_refcount(ptr noundef %15, i64 noundef %16, i64 noundef %shl, i64 noundef 1, i1 noundef zeroext false, i32 noundef 0)
  store i32 %call16, ptr %ret, align 4
  br label %do.cond

do.cond:                                          ; preds = %for.end
  %20 = load i32, ptr %ret, align 4
  %cmp17 = icmp eq i32 %20, -11
  br i1 %cmp17, label %do.body, label %do.end, !llvm.loop !18

do.end:                                           ; preds = %do.cond
  %21 = load i32, ptr %ret, align 4
  %cmp19 = icmp slt i32 %21, 0
  br i1 %cmp19, label %if.then21, label %if.end23

if.then21:                                        ; preds = %do.end
  %22 = load i32, ptr %ret, align 4
  %conv22 = sext i32 %22 to i64
  store i64 %conv22, ptr %retval, align 8
  br label %return

if.end23:                                         ; preds = %do.end
  %23 = load i64, ptr %i, align 8
  store i64 %23, ptr %retval, align 8
  br label %return

return:                                           ; preds = %if.end23, %if.then21, %if.then6, %if.then2
  %24 = load i64, ptr %retval, align 8
  ret i64 %24
}