; Function Attrs: nounwind sspstrong uwtable
define dso_local i64 @qcow2_alloc_clusters_at(ptr noundef %bs, i64 noundef %offset, i64 noundef %nb_clusters) #0 {
entry:
  %refcount = alloca i64, align 8
  %opaque = getelementptr inbounds nuw i8, ptr %bs, i64 24
  %0 = load ptr, ptr %opaque, align 8
  %cmp = icmp sgt i64 %nb_clusters, -1
  br i1 %cmp, label %if.end, label %if.else

if.else:                                          ; preds = %entry
  tail call void @__assert_fail(ptr noundef nonnull @.str.11, ptr noundef nonnull @.str.1, i32 noundef 1039, ptr noundef nonnull @__PRETTY_FUNCTION__.qcow2_alloc_clusters_at) #15
  unreachable

if.end:                                           ; preds = %entry
  %cmp1 = icmp eq i64 %nb_clusters, 0
  br i1 %cmp1, label %return, label %do.body

do.body:                                          ; preds = %if.end, %for.end
  %1 = load i32, ptr %0, align 8
  %sh_prom = zext nneg i32 %1 to i64
  %shr = lshr i64 %offset, %sh_prom
  br label %for.body

for.body:                                         ; preds = %do.body, %for.inc
  %i.016 = phi i64 [ 0, %do.body ], [ %inc13, %for.inc ]
  %cluster_index.015 = phi i64 [ %shr, %do.body ], [ %inc, %for.inc ]
  %inc = add i64 %cluster_index.015, 1
  %call = call i32 @qcow2_get_refcount(ptr noundef %bs, i64 noundef %cluster_index.015, ptr noundef nonnull %refcount)
  %cmp5 = icmp slt i32 %call, 0
  br i1 %cmp5, label %if.then6, label %if.else7

if.then6:                                         ; preds = %for.body
  %conv = sext i32 %call to i64
  br label %return

if.else7:                                         ; preds = %for.body
  %2 = load i64, ptr %refcount, align 8
  %cmp8.not = icmp eq i64 %2, 0
  br i1 %cmp8.not, label %for.inc, label %for.end

for.inc:                                          ; preds = %if.else7
  %inc13 = add nuw i64 %i.016, 1
  %exitcond.not = icmp eq i64 %inc13, %nb_clusters
  br i1 %exitcond.not, label %for.end, label %for.body, !llvm.loop !17

for.end:                                          ; preds = %if.else7, %for.inc
  %i.0.lcssa = phi i64 [ %i.016, %if.else7 ], [ %nb_clusters, %for.inc ]
  %3 = load i32, ptr %0, align 8
  %sh_prom15 = zext nneg i32 %3 to i64
  %shl = shl i64 %i.0.lcssa, %sh_prom15
  %call16 = tail call fastcc i32 @update_refcount(ptr noundef %bs, i64 noundef %offset, i64 noundef %shl, i64 noundef 1, i1 noundef zeroext false, i32 noundef 0)
  %cmp17 = icmp eq i32 %call16, -11
  br i1 %cmp17, label %do.body, label %do.end, !llvm.loop !18

do.end:                                           ; preds = %for.end
  %cmp19 = icmp slt i32 %call16, 0
  %conv22 = sext i32 %call16 to i64
  %spec.select = select i1 %cmp19, i64 %conv22, i64 %i.0.lcssa
  br label %return

return:                                           ; preds = %do.end, %if.end, %if.then6
  %retval.0 = phi i64 [ %conv, %if.then6 ], [ 0, %if.end ], [ %spec.select, %do.end ]
  ret i64 %retval.0
}